target datalayout = "e-m:e-p270:32:32-p271:32:32-p272:64:64-i64:64-i128:128-f80:128-n8:16:32:64-S128"
target triple = "x86_64-pc-linux-gnu"

%"class.absl::Mutex" = type { %"struct.std::atomic.14" }
%"struct.std::atomic.14" = type { %"struct.std::__atomic_base.15" }
%"struct.std::__atomic_base.15" = type { i64 }

; Function Attrs: mustprogress nounwind uwtable
define linkonce_odr dso_local noundef i32 @_ZStanSt12memory_orderSt23__memory_order_modifier(i32 noundef %0, i32 noundef %1) #5 comdat {
  %3 = alloca i32, align 4
  %4 = alloca i32, align 4
  store i32 %0, ptr %3, align 4, !tbaa !53
  store i32 %1, ptr %4, align 4, !tbaa !181
  %5 = load i32, ptr %3, align 4, !tbaa !53
  %6 = load i32, ptr %4, align 4, !tbaa !181
  %7 = and i32 %5, %6
  ret i32 %7
}

; Function Attrs: inlinehint mustprogress nounwind uwtable
define internal void @_ZN4abslL18DebugOnlyLockEnterEPNS_5MutexE(ptr noundef %0) #1 {
  %2 = alloca ptr, align 8
  store ptr %0, ptr %2, align 8, !tbaa !25
  ret void
}

; Function Attrs: alwaysinline mustprogress nounwind uwtable
define linkonce_odr dso_local noundef zeroext i1 @_ZNSt13__atomic_baseIlE23compare_exchange_strongERllSt12memory_orderS2_(ptr noundef nonnull align 8 dereferenceable(8) %0, ptr noundef nonnull align 8 dereferenceable(8) %1, i64 noundef %2, i32 noundef %3, i32 noundef %4) #7 comdat align 2 {
  %6 = alloca ptr, align 8
  %7 = alloca ptr, align 8
  %8 = alloca i64, align 8
  %9 = alloca i32, align 4
  %10 = alloca i32, align 4
  %11 = alloca i64, align 8
  %12 = alloca i8, align 1
  store ptr %0, ptr %6, align 8, !tbaa !83
  store ptr %1, ptr %7, align 8, !tbaa !85
  store i64 %2, ptr %8, align 8, !tbaa !32
  store i32 %3, ptr %9, align 4, !tbaa !53
  store i32 %4, ptr %10, align 4, !tbaa !53
  %13 = load ptr, ptr %6, align 8
  br label %14

14:                                               ; preds = %5
  br label %15

15:                                               ; preds = %14
  br label %16

16:                                               ; preds = %15
  %17 = getelementptr inbounds nuw %"struct.std::__atomic_base.15", ptr %13, i32 0, i32 0
  %18 = load i32, ptr %9, align 4, !tbaa !53
  %19 = load ptr, ptr %7, align 8, !tbaa !85
  %20 = load i64, ptr %8, align 8, !tbaa !32
  store i64 %20, ptr %11, align 8, !tbaa !32
  %21 = load i32, ptr %10, align 4, !tbaa !53
  switch i32 %18, label %22 [
    i32 1, label %23
    i32 2, label %23
    i32 3, label %24
    i32 4, label %25
    i32 5, label %26
  ]

22:                                               ; preds = %16
  switch i32 %21, label %30 [
    i32 1, label %36
    i32 2, label %36
    i32 5, label %42
  ]

23:                                               ; preds = %16, %16
  switch i32 %21, label %58 [
    i32 1, label %64
    i32 2, label %64
    i32 5, label %70
  ]

24:                                               ; preds = %16
  switch i32 %21, label %86 [
    i32 1, label %92
    i32 2, label %92
    i32 5, label %98
  ]

25:                                               ; preds = %16
  switch i32 %21, label %114 [
    i32 1, label %120
    i32 2, label %120
    i32 5, label %126
  ]

26:                                               ; preds = %16
  switch i32 %21, label %142 [
    i32 1, label %148
    i32 2, label %148
    i32 5, label %154
  ]

27:                                               ; preds = %160, %132, %104, %76, %48
  %28 = load i8, ptr %12, align 1, !tbaa !10, !range !34, !noundef !35
  %29 = trunc i8 %28 to i1
  ret i1 %29

30:                                               ; preds = %22
  %31 = load i64, ptr %19, align 8
  %32 = load i64, ptr %11, align 8
  %33 = cmpxchg ptr %17, i64 %31, i64 %32 monotonic monotonic, align 8
  %34 = extractvalue { i64, i1 } %33, 0
  %35 = extractvalue { i64, i1 } %33, 1
  br i1 %35, label %50, label %49

36:                                               ; preds = %22, %22
  %37 = load i64, ptr %19, align 8
  %38 = load i64, ptr %11, align 8
  %39 = cmpxchg ptr %17, i64 %37, i64 %38 monotonic acquire, align 8
  %40 = extractvalue { i64, i1 } %39, 0
  %41 = extractvalue { i64, i1 } %39, 1
  br i1 %41, label %53, label %52

42:                                               ; preds = %22
  %43 = load i64, ptr %19, align 8
  %44 = load i64, ptr %11, align 8
  %45 = cmpxchg ptr %17, i64 %43, i64 %44 monotonic seq_cst, align 8
  %46 = extractvalue { i64, i1 } %45, 0
  %47 = extractvalue { i64, i1 } %45, 1
  br i1 %47, label %56, label %55

48:                                               ; preds = %56, %53, %50
  br label %27

49:                                               ; preds = %30
  store i64 %34, ptr %19, align 8
  br label %50

50:                                               ; preds = %49, %30
  %51 = zext i1 %35 to i8
  store i8 %51, ptr %12, align 1, !tbaa !10
  br label %48

52:                                               ; preds = %36
  store i64 %40, ptr %19, align 8
  br label %53

53:                                               ; preds = %52, %36
  %54 = zext i1 %41 to i8
  store i8 %54, ptr %12, align 1, !tbaa !10
  br label %48

55:                                               ; preds = %42
  store i64 %46, ptr %19, align 8
  br label %56

56:                                               ; preds = %55, %42
  %57 = zext i1 %47 to i8
  store i8 %57, ptr %12, align 1, !tbaa !10
  br label %48

58:                                               ; preds = %23
  %59 = load i64, ptr %19, align 8
  %60 = load i64, ptr %11, align 8
  %61 = cmpxchg ptr %17, i64 %59, i64 %60 acquire monotonic, align 8
  %62 = extractvalue { i64, i1 } %61, 0
  %63 = extractvalue { i64, i1 } %61, 1
  br i1 %63, label %78, label %77

64:                                               ; preds = %23, %23
  %65 = load i64, ptr %19, align 8
  %66 = load i64, ptr %11, align 8
  %67 = cmpxchg ptr %17, i64 %65, i64 %66 acquire acquire, align 8
  %68 = extractvalue { i64, i1 } %67, 0
  %69 = extractvalue { i64, i1 } %67, 1
  br i1 %69, label %81, label %80

70:                                               ; preds = %23
  %71 = load i64, ptr %19, align 8
  %72 = load i64, ptr %11, align 8
  %73 = cmpxchg ptr %17, i64 %71, i64 %72 acquire seq_cst, align 8
  %74 = extractvalue { i64, i1 } %73, 0
  %75 = extractvalue { i64, i1 } %73, 1
  br i1 %75, label %84, label %83

76:                                               ; preds = %84, %81, %78
  br label %27

77:                                               ; preds = %58
  store i64 %62, ptr %19, align 8
  br label %78

78:                                               ; preds = %77, %58
  %79 = zext i1 %63 to i8
  store i8 %79, ptr %12, align 1, !tbaa !10
  br label %76

80:                                               ; preds = %64
  store i64 %68, ptr %19, align 8
  br label %81

81:                                               ; preds = %80, %64
  %82 = zext i1 %69 to i8
  store i8 %82, ptr %12, align 1, !tbaa !10
  br label %76

83:                                               ; preds = %70
  store i64 %74, ptr %19, align 8
  br label %84

84:                                               ; preds = %83, %70
  %85 = zext i1 %75 to i8
  store i8 %85, ptr %12, align 1, !tbaa !10
  br label %76

86:                                               ; preds = %24
  %87 = load i64, ptr %19, align 8
  %88 = load i64, ptr %11, align 8
  %89 = cmpxchg ptr %17, i64 %87, i64 %88 release monotonic, align 8
  %90 = extractvalue { i64, i1 } %89, 0
  %91 = extractvalue { i64, i1 } %89, 1
  br i1 %91, label %106, label %105

92:                                               ; preds = %24, %24
  %93 = load i64, ptr %19, align 8
  %94 = load i64, ptr %11, align 8
  %95 = cmpxchg ptr %17, i64 %93, i64 %94 release acquire, align 8
  %96 = extractvalue { i64, i1 } %95, 0
  %97 = extractvalue { i64, i1 } %95, 1
  br i1 %97, label %109, label %108

98:                                               ; preds = %24
  %99 = load i64, ptr %19, align 8
  %100 = load i64, ptr %11, align 8
  %101 = cmpxchg ptr %17, i64 %99, i64 %100 release seq_cst, align 8
  %102 = extractvalue { i64, i1 } %101, 0
  %103 = extractvalue { i64, i1 } %101, 1
  br i1 %103, label %112, label %111

104:                                              ; preds = %112, %109, %106
  br label %27

105:                                              ; preds = %86
  store i64 %90, ptr %19, align 8
  br label %106

106:                                              ; preds = %105, %86
  %107 = zext i1 %91 to i8
  store i8 %107, ptr %12, align 1, !tbaa !10
  br label %104

108:                                              ; preds = %92
  store i64 %96, ptr %19, align 8
  br label %109

109:                                              ; preds = %108, %92
  %110 = zext i1 %97 to i8
  store i8 %110, ptr %12, align 1, !tbaa !10
  br label %104

111:                                              ; preds = %98
  store i64 %102, ptr %19, align 8
  br label %112

112:                                              ; preds = %111, %98
  %113 = zext i1 %103 to i8
  store i8 %113, ptr %12, align 1, !tbaa !10
  br label %104

114:                                              ; preds = %25
  %115 = load i64, ptr %19, align 8
  %116 = load i64, ptr %11, align 8
  %117 = cmpxchg ptr %17, i64 %115, i64 %116 acq_rel monotonic, align 8
  %118 = extractvalue { i64, i1 } %117, 0
  %119 = extractvalue { i64, i1 } %117, 1
  br i1 %119, label %134, label %133

120:                                              ; preds = %25, %25
  %121 = load i64, ptr %19, align 8
  %122 = load i64, ptr %11, align 8
  %123 = cmpxchg ptr %17, i64 %121, i64 %122 acq_rel acquire, align 8
  %124 = extractvalue { i64, i1 } %123, 0
  %125 = extractvalue { i64, i1 } %123, 1
  br i1 %125, label %137, label %136

126:                                              ; preds = %25
  %127 = load i64, ptr %19, align 8
  %128 = load i64, ptr %11, align 8
  %129 = cmpxchg ptr %17, i64 %127, i64 %128 acq_rel seq_cst, align 8
  %130 = extractvalue { i64, i1 } %129, 0
  %131 = extractvalue { i64, i1 } %129, 1
  br i1 %131, label %140, label %139

132:                                              ; preds = %140, %137, %134
  br label %27

133:                                              ; preds = %114
  store i64 %118, ptr %19, align 8
  br label %134

134:                                              ; preds = %133, %114
  %135 = zext i1 %119 to i8
  store i8 %135, ptr %12, align 1, !tbaa !10
  br label %132

136:                                              ; preds = %120
  store i64 %124, ptr %19, align 8
  br label %137

137:                                              ; preds = %136, %120
  %138 = zext i1 %125 to i8
  store i8 %138, ptr %12, align 1, !tbaa !10
  br label %132

139:                                              ; preds = %126
  store i64 %130, ptr %19, align 8
  br label %140

140:                                              ; preds = %139, %126
  %141 = zext i1 %131 to i8
  store i8 %141, ptr %12, align 1, !tbaa !10
  br label %132

142:                                              ; preds = %26
  %143 = load i64, ptr %19, align 8
  %144 = load i64, ptr %11, align 8
  %145 = cmpxchg ptr %17, i64 %143, i64 %144 seq_cst monotonic, align 8
  %146 = extractvalue { i64, i1 } %145, 0
  %147 = extractvalue { i64, i1 } %145, 1
  br i1 %147, label %162, label %161

148:                                              ; preds = %26, %26
  %149 = load i64, ptr %19, align 8
  %150 = load i64, ptr %11, align 8
  %151 = cmpxchg ptr %17, i64 %149, i64 %150 seq_cst acquire, align 8
  %152 = extractvalue { i64, i1 } %151, 0
  %153 = extractvalue { i64, i1 } %151, 1
  br i1 %153, label %165, label %164

154:                                              ; preds = %26
  %155 = load i64, ptr %19, align 8
  %156 = load i64, ptr %11, align 8
  %157 = cmpxchg ptr %17, i64 %155, i64 %156 seq_cst seq_cst, align 8
  %158 = extractvalue { i64, i1 } %157, 0
  %159 = extractvalue { i64, i1 } %157, 1
  br i1 %159, label %168, label %167

160:                                              ; preds = %168, %165, %162
  br label %27

161:                                              ; preds = %142
  store i64 %146, ptr %19, align 8
  br label %162

162:                                              ; preds = %161, %142
  %163 = zext i1 %147 to i8
  store i8 %163, ptr %12, align 1, !tbaa !10
  br label %160

164:                                              ; preds = %148
  store i64 %152, ptr %19, align 8
  br label %165

165:                                              ; preds = %164, %148
  %166 = zext i1 %153 to i8
  store i8 %166, ptr %12, align 1, !tbaa !10
  br label %160

167:                                              ; preds = %154
  store i64 %158, ptr %19, align 8
  br label %168

168:                                              ; preds = %167, %154
  %169 = zext i1 %159 to i8
  store i8 %169, ptr %12, align 1, !tbaa !10
  br label %160
}

; Function Attrs: alwaysinline mustprogress nounwind uwtable
define linkonce_odr dso_local noundef i64 @_ZNKSt13__atomic_baseIlE4loadESt12memory_order(ptr noundef nonnull align 8 dereferenceable(8) %0, i32 noundef %1) #7 comdat align 2 {
  %3 = alloca ptr, align 8
  %4 = alloca i32, align 4
  %5 = alloca i32, align 4
  %6 = alloca i64, align 8
  store ptr %0, ptr %3, align 8, !tbaa !83
  store i32 %1, ptr %4, align 4, !tbaa !53
  %7 = load ptr, ptr %3, align 8
  call void @llvm.lifetime.start.p0(i64 4, ptr %5) #18
  %8 = load i32, ptr %4, align 4, !tbaa !53
  %9 = call noundef i32 @_ZStanSt12memory_orderSt23__memory_order_modifier(i32 noundef %8, i32 noundef 65535)
  store i32 %9, ptr %5, align 4, !tbaa !53
  br label %10

10:                                               ; preds = %2
  br label %11

11:                                               ; preds = %10
  br label %12

12:                                               ; preds = %11
  br label %13

13:                                               ; preds = %12
  br label %14

14:                                               ; preds = %13
  br label %15

15:                                               ; preds = %14
  %16 = getelementptr inbounds nuw %"struct.std::__atomic_base.15", ptr %7, i32 0, i32 0
  %17 = load i32, ptr %4, align 4, !tbaa !53
  switch i32 %17, label %18 [
    i32 1, label %20
    i32 2, label %20
    i32 5, label %22
  ]

18:                                               ; preds = %15
  %19 = load atomic i64, ptr %16 monotonic, align 8
  store i64 %19, ptr %6, align 8
  br label %24

20:                                               ; preds = %15, %15
  %21 = load atomic i64, ptr %16 acquire, align 8
  store i64 %21, ptr %6, align 8
  br label %24

22:                                               ; preds = %15
  %23 = load atomic i64, ptr %16 seq_cst, align 8
  store i64 %23, ptr %6, align 8
  br label %24

24:                                               ; preds = %22, %20, %18
  %25 = load i64, ptr %6, align 8, !tbaa !32
  call void @llvm.lifetime.end.p0(i64 4, ptr %5) #18
  ret i64 %25
}

; Function Attrs: mustprogress noinline uwtable
define dso_local noundef zeroext i1 @_ZN4absl5Mutex17ReaderTryLockSlowEv(ptr noundef nonnull align 8 dereferenceable(8) %0) #10 align 2 {
  %2 = alloca i1, align 1
  %3 = alloca ptr, align 8
  %4 = alloca i64, align 8
  %5 = alloca i32, align 4
  %6 = alloca i32, align 4
  store ptr %0, ptr %3, align 8, !tbaa !25
  %7 = load ptr, ptr %3, align 8
  call void @llvm.lifetime.start.p0(i64 8, ptr %4) #18
  %8 = getelementptr inbounds nuw %"class.absl::Mutex", ptr %7, i32 0, i32 0
  %9 = call noundef i64 @_ZNKSt13__atomic_baseIlE4loadESt12memory_order(ptr noundef nonnull align 8 dereferenceable(8) %8, i32 noundef 0) #18
  store i64 %9, ptr %4, align 8, !tbaa !32
  call void @llvm.lifetime.start.p0(i64 4, ptr %5) #18
  store i32 5, ptr %5, align 4, !tbaa !16
  br label %10

10:                                               ; preds = %26, %1
  %11 = load i32, ptr %5, align 4, !tbaa !16
  %12 = icmp ne i32 %11, 0
  br i1 %12, label %14, label %13

13:                                               ; preds = %10
  store i32 2, ptr %6, align 4
  br label %29

14:                                               ; preds = %10
  %15 = load i64, ptr %4, align 8, !tbaa !32
  %16 = and i64 %15, 12
  %17 = icmp eq i64 %16, 0
  br i1 %17, label %18, label %25

18:                                               ; preds = %14
  %19 = getelementptr inbounds nuw %"class.absl::Mutex", ptr %7, i32 0, i32 0
  %20 = load i64, ptr %4, align 8, !tbaa !32
  %21 = or i64 1, %20
  %22 = add nsw i64 %21, 256
  %23 = call noundef zeroext i1 @_ZNSt13__atomic_baseIlE23compare_exchange_strongERllSt12memory_orderS2_(ptr noundef nonnull align 8 dereferenceable(8) %19, ptr noundef nonnull align 8 dereferenceable(8) %4, i64 noundef %22, i32 noundef 2, i32 noundef 0) #18
  br i1 %23, label %24, label %25

24:                                               ; preds = %18
  call void @_ZN4abslL18DebugOnlyLockEnterEPNS_5MutexE(ptr noundef %7)
  call void @_ZN4abslL14PostSynchEventEPvi(ptr noundef %7, i32 noundef 2)
  store i1 true, ptr %2, align 1
  store i32 1, ptr %6, align 4
  br label %29

25:                                               ; preds = %18, %14
  br label %26

26:                                               ; preds = %25
  %27 = load i32, ptr %5, align 4, !tbaa !16
  %28 = add nsw i32 %27, -1
  store i32 %28, ptr %5, align 4, !tbaa !16
  br label %10, !llvm.loop !140

29:                                               ; preds = %24, %13
  call void @llvm.lifetime.end.p0(i64 4, ptr %5) #18
  %30 = load i32, ptr %6, align 4
  switch i32 %30, label %32 [
    i32 2, label %31
  ]

31:                                               ; preds = %29
  call void @_ZN4abslL14PostSynchEventEPvi(ptr noundef %7, i32 noundef 3)
  store i1 false, ptr %2, align 1
  store i32 1, ptr %6, align 4
  br label %32

32:                                               ; preds = %31, %29
  call void @llvm.lifetime.end.p0(i64 8, ptr %4) #18
  %33 = load i1, ptr %2, align 1
  ret i1 %33
}