; Function Attrs: mustprogress noinline uwtable
define dso_local noundef zeroext i1 @_ZN4absl5Mutex17ReaderTryLockSlowEv(ptr noundef nonnull align 8 dereferenceable(8) %0) local_unnamed_addr #11 align 2 {
  %2 = load atomic i64, ptr %0 monotonic, align 8
  br label %3

3:                                                ; preds = %1, %12
  %.0411 = phi i32 [ 5, %1 ], [ %13, %12 ]
  %.010 = phi i64 [ %2, %1 ], [ %.1, %12 ]
  %4 = and i64 %.010, 12
  %5 = icmp eq i64 %4, 0
  br i1 %5, label %6, label %12

6:                                                ; preds = %3
  %7 = or i64 %.010, 1
  %8 = add nsw i64 %7, 256
  %9 = cmpxchg ptr %0, i64 %.010, i64 %8 acquire monotonic, align 8
  %10 = extractvalue { i64, i1 } %9, 1
  br i1 %10, label %.critedge, label %_ZNSt13__atomic_baseIlE23compare_exchange_strongERllSt12memory_orderS2_.exit

_ZNSt13__atomic_baseIlE23compare_exchange_strongERllSt12memory_orderS2_.exit: ; preds = %6
  %11 = extractvalue { i64, i1 } %9, 0
  br label %12

12:                                               ; preds = %_ZNSt13__atomic_baseIlE23compare_exchange_strongERllSt12memory_orderS2_.exit, %3
  %.1 = phi i64 [ %11, %_ZNSt13__atomic_baseIlE23compare_exchange_strongERllSt12memory_orderS2_.exit ], [ %.010, %3 ]
  %13 = add nsw i32 %.0411, -1
  %.not.not = icmp eq i32 %13, 0
  br i1 %.not.not, label %.critedge, label %3, !llvm.loop !118

.critedge:                                        ; preds = %12, %6
  %.sink = phi i32 [ 2, %6 ], [ 3, %12 ]
  %.not9 = phi i1 [ true, %6 ], [ false, %12 ]
  tail call fastcc void @_ZN4abslL14PostSynchEventEPvi(ptr noundef %0, i32 noundef %.sink)
  ret i1 %.not9
}